target datalayout = "e-m:e-p270:32:32-p271:32:32-p272:64:64-i64:64-i128:128-f80:128-n8:16:32:64-S128"
target triple = "x86_64-pc-linux-gnu"

%"struct.ozz::geometry::SkinningJob" = type { i32, i32, %"struct.ozz::span", %"struct.ozz::span", %"struct.ozz::span.0", i64, %"struct.ozz::span.1", i64, %"struct.ozz::span.1", i64, %"struct.ozz::span.1", i64, %"struct.ozz::span.1", i64, %"struct.ozz::span.2", i64, %"struct.ozz::span.2", i64, %"struct.ozz::span.2", i64 }
%"struct.ozz::span" = type { ptr, i64 }
%"struct.ozz::span.0" = type { ptr, i64 }
%"struct.ozz::span.1" = type { ptr, i64 }
%"struct.ozz::span.2" = type { ptr, i64 }
%"struct.ozz::math::Float4x4" = type { [4 x <4 x float>] }
%struct.__loadu_ps = type { <4 x float> }
%struct.__mm_store_ss_struct = type { float }
%struct.__mm_load_ss_struct = type { float }

; Function Attrs: alwaysinline mustprogress nounwind uwtable
define internal noundef <4 x float> @_ZL13_mm_movelh_psDv4_fS_(<4 x float> noundef %0, <4 x float> noundef %1) #5 {
  %3 = alloca <4 x float>, align 16
  %4 = alloca <4 x float>, align 16
  store <4 x float> %0, ptr %3, align 16, !tbaa !55
  store <4 x float> %1, ptr %4, align 16, !tbaa !55
  %5 = load <4 x float>, ptr %3, align 16, !tbaa !55
  %6 = load <4 x float>, ptr %4, align 16, !tbaa !55
  %7 = shufflevector <4 x float> %5, <4 x float> %6, <4 x i32> <i32 0, i32 1, i32 4, i32 5>
  ret <4 x float> %7
}

; Function Attrs: alwaysinline mustprogress nounwind uwtable
define internal noundef <4 x float> @_ZL15_mm_unpacklo_psDv4_fS_(<4 x float> noundef %0, <4 x float> noundef %1) #5 {
  %3 = alloca <4 x float>, align 16
  %4 = alloca <4 x float>, align 16
  store <4 x float> %0, ptr %3, align 16, !tbaa !55
  store <4 x float> %1, ptr %4, align 16, !tbaa !55
  %5 = load <4 x float>, ptr %3, align 16, !tbaa !55
  %6 = load <4 x float>, ptr %4, align 16, !tbaa !55
  %7 = shufflevector <4 x float> %5, <4 x float> %6, <4 x i32> <i32 0, i32 4, i32 1, i32 5>
  ret <4 x float> %7
}

; Function Attrs: alwaysinline mustprogress nounwind uwtable
define internal noundef <4 x float> @_ZL11_mm_load_ssPKf(ptr noundef %0) #5 {
  %2 = alloca ptr, align 8
  %3 = alloca float, align 4
  %4 = alloca <4 x float>, align 16
  store ptr %0, ptr %2, align 8, !tbaa !51
  call void @llvm.lifetime.start.p0(i64 4, ptr %3) #8
  %5 = load ptr, ptr %2, align 8, !tbaa !51
  %6 = getelementptr inbounds nuw %struct.__mm_load_ss_struct, ptr %5, i32 0, i32 0
  %7 = load float, ptr %6, align 1, !tbaa !55
  store float %7, ptr %3, align 4, !tbaa !95
  %8 = load float, ptr %3, align 4, !tbaa !95
  %9 = insertelement <4 x float> poison, float %8, i32 0
  %10 = insertelement <4 x float> %9, float 0.000000e+00, i32 1
  %11 = insertelement <4 x float> %10, float 0.000000e+00, i32 2
  %12 = insertelement <4 x float> %11, float 0.000000e+00, i32 3
  store <4 x float> %12, ptr %4, align 16, !tbaa !55
  %13 = load <4 x float>, ptr %4, align 16, !tbaa !55
  call void @llvm.lifetime.end.p0(i64 4, ptr %3) #8
  ret <4 x float> %13
}

; Function Attrs: alwaysinline mustprogress nounwind uwtable
define internal noundef <4 x float> @_ZL13_mm_movehl_psDv4_fS_(<4 x float> noundef %0, <4 x float> noundef %1) #5 {
  %3 = alloca <4 x float>, align 16
  %4 = alloca <4 x float>, align 16
  store <4 x float> %0, ptr %3, align 16, !tbaa !55
  store <4 x float> %1, ptr %4, align 16, !tbaa !55
  %5 = load <4 x float>, ptr %3, align 16, !tbaa !55
  %6 = load <4 x float>, ptr %4, align 16, !tbaa !55
  %7 = shufflevector <4 x float> %5, <4 x float> %6, <4 x i32> <i32 6, i32 7, i32 2, i32 3>
  ret <4 x float> %7
}

; Function Attrs: alwaysinline mustprogress nounwind uwtable
define internal void @_ZL12_mm_store_ssPfDv4_f(ptr noundef %0, <4 x float> noundef %1) #5 {
  %3 = alloca ptr, align 8
  %4 = alloca <4 x float>, align 16
  store ptr %0, ptr %3, align 8, !tbaa !51
  store <4 x float> %1, ptr %4, align 16, !tbaa !55
  %5 = load <4 x float>, ptr %4, align 16, !tbaa !55
  %6 = extractelement <4 x float> %5, i32 0
  %7 = load ptr, ptr %3, align 8, !tbaa !51
  %8 = getelementptr inbounds nuw %struct.__mm_store_ss_struct, ptr %7, i32 0, i32 0
  store float %6, ptr %8, align 1, !tbaa !55
  ret void
}

; Function Attrs: alwaysinline mustprogress nounwind uwtable
define internal noundef <4 x float> @_ZL10_mm_add_psDv4_fS_(<4 x float> noundef %0, <4 x float> noundef %1) #5 {
  %3 = alloca <4 x float>, align 16
  %4 = alloca <4 x float>, align 16
  store <4 x float> %0, ptr %3, align 16, !tbaa !55
  store <4 x float> %1, ptr %4, align 16, !tbaa !55
  %5 = load <4 x float>, ptr %3, align 16, !tbaa !55
  %6 = load <4 x float>, ptr %4, align 16, !tbaa !55
  %7 = fadd <4 x float> %5, %6
  ret <4 x float> %7
}

; Function Attrs: alwaysinline mustprogress nounwind uwtable
define internal noundef <4 x float> @_ZL10_mm_mul_psDv4_fS_(<4 x float> noundef %0, <4 x float> noundef %1) #5 {
  %3 = alloca <4 x float>, align 16
  %4 = alloca <4 x float>, align 16
  store <4 x float> %0, ptr %3, align 16, !tbaa !55
  store <4 x float> %1, ptr %4, align 16, !tbaa !55
  %5 = load <4 x float>, ptr %3, align 16, !tbaa !55
  %6 = load <4 x float>, ptr %4, align 16, !tbaa !55
  %7 = fmul <4 x float> %5, %6
  ret <4 x float> %7
}

; Function Attrs: alwaysinline mustprogress nounwind uwtable
define internal noundef <4 x float> @_ZL12_mm_loadu_psPKf(ptr noundef %0) #5 {
  %2 = alloca ptr, align 8
  store ptr %0, ptr %2, align 8, !tbaa !51
  %3 = load ptr, ptr %2, align 8, !tbaa !51
  %4 = getelementptr inbounds nuw %struct.__loadu_ps, ptr %3, i32 0, i32 0
  %5 = load <4 x float>, ptr %4, align 1, !tbaa !55
  ret <4 x float> %5
}

; Function Attrs: alwaysinline mustprogress uwtable
define linkonce_odr dso_local noundef <4 x float> @_ZN3ozz4math11simd_float49Load3PtrUEPKf(ptr noundef %0) #4 comdat {
  %2 = alloca ptr, align 8
  store ptr %0, ptr %2, align 8, !tbaa !51
  %3 = load ptr, ptr %2, align 8, !tbaa !51
  %4 = getelementptr inbounds float, ptr %3, i64 0
  %5 = call noundef <4 x float> @_ZL11_mm_load_ssPKf(ptr noundef %4)
  %6 = load ptr, ptr %2, align 8, !tbaa !51
  %7 = getelementptr inbounds float, ptr %6, i64 1
  %8 = call noundef <4 x float> @_ZL11_mm_load_ssPKf(ptr noundef %7)
  %9 = call noundef <4 x float> @_ZL15_mm_unpacklo_psDv4_fS_(<4 x float> noundef %5, <4 x float> noundef %8)
  %10 = load ptr, ptr %2, align 8, !tbaa !51
  %11 = getelementptr inbounds float, ptr %10, i64 2
  %12 = call noundef <4 x float> @_ZL11_mm_load_ssPKf(ptr noundef %11)
  %13 = call noundef <4 x float> @_ZL13_mm_movelh_psDv4_fS_(<4 x float> noundef %9, <4 x float> noundef %12)
  ret <4 x float> %13
}

; Function Attrs: alwaysinline mustprogress uwtable
define linkonce_odr dso_local void @_ZN3ozz4math10Store3PtrUEDv4_fPf(<4 x float> noundef %0, ptr noundef %1) #4 comdat {
  %3 = alloca <4 x float>, align 16
  %4 = alloca ptr, align 8
  store <4 x float> %0, ptr %3, align 16, !tbaa !55
  store ptr %1, ptr %4, align 8, !tbaa !51
  %5 = load ptr, ptr %4, align 8, !tbaa !51
  %6 = getelementptr inbounds float, ptr %5, i64 0
  %7 = load <4 x float>, ptr %3, align 16, !tbaa !55
  call void @_ZL12_mm_store_ssPfDv4_f(ptr noundef %6, <4 x float> noundef %7)
  %8 = load ptr, ptr %4, align 8, !tbaa !51
  %9 = getelementptr inbounds float, ptr %8, i64 1
  %10 = load <4 x float>, ptr %3, align 16, !tbaa !55
  %11 = load <4 x float>, ptr %3, align 16, !tbaa !55
  %12 = shufflevector <4 x float> %10, <4 x float> %11, <4 x i32> <i32 1, i32 1, i32 5, i32 5>
  call void @_ZL12_mm_store_ssPfDv4_f(ptr noundef %9, <4 x float> noundef %12)
  %13 = load ptr, ptr %4, align 8, !tbaa !51
  %14 = getelementptr inbounds float, ptr %13, i64 2
  %15 = load <4 x float>, ptr %3, align 16, !tbaa !55
  %16 = load <4 x float>, ptr %3, align 16, !tbaa !55
  %17 = call noundef <4 x float> @_ZL13_mm_movehl_psDv4_fS_(<4 x float> noundef %15, <4 x float> noundef %16)
  call void @_ZL12_mm_store_ssPfDv4_f(ptr noundef %14, <4 x float> noundef %17)
  ret void
}

; Function Attrs: alwaysinline mustprogress uwtable
define linkonce_odr dso_local noundef <4 x float> @_ZN3ozz4math14TransformPointERKNS0_8Float4x4EDv4_f(ptr noundef nonnull align 16 dereferenceable(64) %0, <4 x float> noundef %1) #4 comdat {
  %3 = alloca ptr, align 8
  %4 = alloca <4 x float>, align 16
  %5 = alloca <4 x float>, align 16
  %6 = alloca <4 x float>, align 16
  %7 = alloca <4 x float>, align 16
  store ptr %0, ptr %3, align 8, !tbaa !54
  store <4 x float> %1, ptr %4, align 16, !tbaa !55
  call void @llvm.lifetime.start.p0(i64 16, ptr %5) #8
  %8 = load <4 x float>, ptr %4, align 16, !tbaa !55
  %9 = load <4 x float>, ptr %4, align 16, !tbaa !55
  %10 = shufflevector <4 x float> %8, <4 x float> %9, <4 x i32> <i32 0, i32 0, i32 4, i32 4>
  %11 = load ptr, ptr %3, align 8, !tbaa !54
  %12 = getelementptr inbounds nuw %"struct.ozz::math::Float4x4", ptr %11, i32 0, i32 0
  %13 = getelementptr inbounds [4 x <4 x float>], ptr %12, i64 0, i64 0
  %14 = load <4 x float>, ptr %13, align 16, !tbaa !55
  %15 = call noundef <4 x float> @_ZL10_mm_mul_psDv4_fS_(<4 x float> noundef %10, <4 x float> noundef %14)
  store <4 x float> %15, ptr %5, align 16, !tbaa !55
  call void @llvm.lifetime.start.p0(i64 16, ptr %6) #8
  %16 = load <4 x float>, ptr %4, align 16, !tbaa !55
  %17 = load <4 x float>, ptr %4, align 16, !tbaa !55
  %18 = shufflevector <4 x float> %16, <4 x float> %17, <4 x i32> <i32 2, i32 2, i32 6, i32 6>
  %19 = load ptr, ptr %3, align 8, !tbaa !54
  %20 = getelementptr inbounds nuw %"struct.ozz::math::Float4x4", ptr %19, i32 0, i32 0
  %21 = getelementptr inbounds [4 x <4 x float>], ptr %20, i64 0, i64 2
  %22 = load <4 x float>, ptr %21, align 16, !tbaa !55
  %23 = call noundef <4 x float> @_ZL10_mm_mul_psDv4_fS_(<4 x float> noundef %18, <4 x float> noundef %22)
  %24 = load ptr, ptr %3, align 8, !tbaa !54
  %25 = getelementptr inbounds nuw %"struct.ozz::math::Float4x4", ptr %24, i32 0, i32 0
  %26 = getelementptr inbounds [4 x <4 x float>], ptr %25, i64 0, i64 3
  %27 = load <4 x float>, ptr %26, align 16, !tbaa !55
  %28 = call noundef <4 x float> @_ZL10_mm_add_psDv4_fS_(<4 x float> noundef %23, <4 x float> noundef %27)
  store <4 x float> %28, ptr %6, align 16, !tbaa !55
  call void @llvm.lifetime.start.p0(i64 16, ptr %7) #8
  %29 = load <4 x float>, ptr %4, align 16, !tbaa !55
  %30 = load <4 x float>, ptr %4, align 16, !tbaa !55
  %31 = shufflevector <4 x float> %29, <4 x float> %30, <4 x i32> <i32 1, i32 1, i32 5, i32 5>
  %32 = load ptr, ptr %3, align 8, !tbaa !54
  %33 = getelementptr inbounds nuw %"struct.ozz::math::Float4x4", ptr %32, i32 0, i32 0
  %34 = getelementptr inbounds [4 x <4 x float>], ptr %33, i64 0, i64 1
  %35 = load <4 x float>, ptr %34, align 16, !tbaa !55
  %36 = call noundef <4 x float> @_ZL10_mm_mul_psDv4_fS_(<4 x float> noundef %31, <4 x float> noundef %35)
  %37 = load <4 x float>, ptr %5, align 16, !tbaa !55
  %38 = call noundef <4 x float> @_ZL10_mm_add_psDv4_fS_(<4 x float> noundef %36, <4 x float> noundef %37)
  store <4 x float> %38, ptr %7, align 16, !tbaa !55
  %39 = load <4 x float>, ptr %7, align 16, !tbaa !55
  %40 = load <4 x float>, ptr %6, align 16, !tbaa !55
  %41 = call noundef <4 x float> @_ZL10_mm_add_psDv4_fS_(<4 x float> noundef %39, <4 x float> noundef %40)
  call void @llvm.lifetime.end.p0(i64 16, ptr %7) #8
  call void @llvm.lifetime.end.p0(i64 16, ptr %6) #8
  call void @llvm.lifetime.end.p0(i64 16, ptr %5) #8
  ret <4 x float> %41
}

; Function Attrs: alwaysinline mustprogress uwtable
define linkonce_odr dso_local noundef <4 x float> @_ZN3ozz4math11simd_float48LoadPtrUEPKf(ptr noundef %0) #4 comdat {
  %2 = alloca ptr, align 8
  store ptr %0, ptr %2, align 8, !tbaa !51
  %3 = load ptr, ptr %2, align 8, !tbaa !51
  %4 = call noundef <4 x float> @_ZL12_mm_loadu_psPKf(ptr noundef %3)
  ret <4 x float> %4
}

; Function Attrs: mustprogress nounwind uwtable
define linkonce_odr dso_local noundef nonnull align 16 dereferenceable(64) ptr @_ZNK3ozz4spanIKNS_4math8Float4x4EEixEm(ptr noundef nonnull align 8 dereferenceable(16) %0, i64 noundef %1) #1 comdat align 2 {
  %3 = alloca ptr, align 8
  %4 = alloca i64, align 8
  store ptr %0, ptr %3, align 8, !tbaa !29
  store i64 %1, ptr %4, align 8, !tbaa !58
  %5 = load ptr, ptr %3, align 8
  %6 = getelementptr inbounds nuw %"struct.ozz::span", ptr %5, i32 0, i32 0
  %7 = load ptr, ptr %6, align 8, !tbaa !31
  %8 = load i64, ptr %4, align 8, !tbaa !58
  %9 = getelementptr inbounds nuw %"struct.ozz::math::Float4x4", ptr %7, i64 %8
  ret ptr %9
}

; Function Attrs: mustprogress nounwind uwtable
define linkonce_odr dso_local noundef ptr @_ZNK3ozz4spanIfE5beginEv(ptr noundef nonnull align 8 dereferenceable(16) %0) #1 comdat align 2 {
  %2 = alloca ptr, align 8
  store ptr %0, ptr %2, align 8, !tbaa !41
  %3 = load ptr, ptr %2, align 8
  %4 = getelementptr inbounds nuw %"struct.ozz::span.2", ptr %3, i32 0, i32 0
  %5 = load ptr, ptr %4, align 8, !tbaa !43
  ret ptr %5
}

; Function Attrs: mustprogress nounwind uwtable
define linkonce_odr dso_local noundef ptr @_ZNK3ozz4spanIKfE5beginEv(ptr noundef nonnull align 8 dereferenceable(16) %0) #1 comdat align 2 {
  %2 = alloca ptr, align 8
  store ptr %0, ptr %2, align 8, !tbaa !37
  %3 = load ptr, ptr %2, align 8
  %4 = getelementptr inbounds nuw %"struct.ozz::span.1", ptr %3, i32 0, i32 0
  %5 = load ptr, ptr %4, align 8, !tbaa !39
  ret ptr %5
}

; Function Attrs: mustprogress nounwind uwtable
define linkonce_odr dso_local noundef ptr @_ZNK3ozz4spanIKtE5beginEv(ptr noundef nonnull align 8 dereferenceable(16) %0) #1 comdat align 2 {
  %2 = alloca ptr, align 8
  store ptr %0, ptr %2, align 8, !tbaa !33
  %3 = load ptr, ptr %2, align 8
  %4 = getelementptr inbounds nuw %"struct.ozz::span.0", ptr %3, i32 0, i32 0
  %5 = load ptr, ptr %4, align 8, !tbaa !35
  ret ptr %5
}

; Function Attrs: mustprogress uwtable
define dso_local void @_ZN3ozz8geometry14SkinningPNOIT1ERKNS0_11SkinningJobE(ptr noundef nonnull align 8 dereferenceable(232) %0) #3 {
  %2 = alloca ptr, align 8
  %3 = alloca ptr, align 8
  %4 = alloca ptr, align 8
  %5 = alloca ptr, align 8
  %6 = alloca i32, align 4
  %7 = alloca i32, align 4
  %8 = alloca i16, align 2
  %9 = alloca ptr, align 8
  %10 = alloca ptr, align 8
  %11 = alloca <4 x float>, align 16
  %12 = alloca <4 x float>, align 16
  %13 = alloca i16, align 2
  %14 = alloca ptr, align 8
  %15 = alloca ptr, align 8
  %16 = alloca <4 x float>, align 16
  %17 = alloca <4 x float>, align 16
  store ptr %0, ptr %2, align 8, !tbaa !4
  call void @llvm.lifetime.start.p0(i64 8, ptr %3) #8
  %18 = load ptr, ptr %2, align 8, !tbaa !4
  %19 = getelementptr inbounds nuw %"struct.ozz::geometry::SkinningJob", ptr %18, i32 0, i32 4
  %20 = call noundef ptr @_ZNK3ozz4spanIKtE5beginEv(ptr noundef nonnull align 8 dereferenceable(16) %19)
  store ptr %20, ptr %3, align 8, !tbaa !50
  call void @llvm.lifetime.start.p0(i64 8, ptr %4) #8
  %21 = load ptr, ptr %2, align 8, !tbaa !4
  %22 = getelementptr inbounds nuw %"struct.ozz::geometry::SkinningJob", ptr %21, i32 0, i32 8
  %23 = call noundef ptr @_ZNK3ozz4spanIKfE5beginEv(ptr noundef nonnull align 8 dereferenceable(16) %22)
  store ptr %23, ptr %4, align 8, !tbaa !51
  call void @llvm.lifetime.start.p0(i64 8, ptr %5) #8
  %24 = load ptr, ptr %2, align 8, !tbaa !4
  %25 = getelementptr inbounds nuw %"struct.ozz::geometry::SkinningJob", ptr %24, i32 0, i32 14
  %26 = call noundef ptr @_ZNK3ozz4spanIfE5beginEv(ptr noundef nonnull align 8 dereferenceable(16) %25)
  store ptr %26, ptr %5, align 8, !tbaa !51
  call void @llvm.lifetime.start.p0(i64 4, ptr %6) #8
  %27 = load ptr, ptr %2, align 8, !tbaa !4
  %28 = getelementptr inbounds nuw %"struct.ozz::geometry::SkinningJob", ptr %27, i32 0, i32 0
  %29 = load i32, ptr %28, align 8, !tbaa !9
  %30 = sub nsw i32 %29, 1
  store i32 %30, ptr %6, align 4, !tbaa !49
  call void @llvm.lifetime.start.p0(i64 4, ptr %7) #8
  store i32 0, ptr %7, align 4, !tbaa !49
  br label %31

31:                                               ; preds = %74, %1
  %32 = load i32, ptr %7, align 4, !tbaa !49
  %33 = load i32, ptr %6, align 4, !tbaa !49
  %34 = icmp slt i32 %32, %33
  br i1 %34, label %36, label %35

35:                                               ; preds = %31
  call void @llvm.lifetime.end.p0(i64 4, ptr %7) #8
  br label %77

36:                                               ; preds = %31
  call void @llvm.lifetime.start.p0(i64 2, ptr %8) #8
  %37 = load ptr, ptr %3, align 8, !tbaa !50
  %38 = getelementptr inbounds i16, ptr %37, i64 0
  %39 = load i16, ptr %38, align 2, !tbaa !52
  store i16 %39, ptr %8, align 2, !tbaa !52
  call void @llvm.lifetime.start.p0(i64 8, ptr %9) #8
  %40 = load ptr, ptr %2, align 8, !tbaa !4
  %41 = getelementptr inbounds nuw %"struct.ozz::geometry::SkinningJob", ptr %40, i32 0, i32 2
  %42 = load i16, ptr %8, align 2, !tbaa !52
  %43 = zext i16 %42 to i64
  %44 = call noundef nonnull align 16 dereferenceable(64) ptr @_ZNK3ozz4spanIKNS_4math8Float4x4EEixEm(ptr noundef nonnull align 8 dereferenceable(16) %41, i64 noundef %43)
  store ptr %44, ptr %9, align 8, !tbaa !54
  call void @llvm.lifetime.start.p0(i64 8, ptr %10) #8
  %45 = load ptr, ptr %9, align 8, !tbaa !54
  store ptr %45, ptr %10, align 8, !tbaa !54
  call void @llvm.lifetime.start.p0(i64 16, ptr %11) #8
  %46 = load ptr, ptr %4, align 8, !tbaa !51
  %47 = call noundef <4 x float> @_ZN3ozz4math11simd_float48LoadPtrUEPKf(ptr noundef %46)
  store <4 x float> %47, ptr %11, align 16, !tbaa !55
  call void @llvm.lifetime.start.p0(i64 16, ptr %12) #8
  %48 = load ptr, ptr %9, align 8, !tbaa !54
  %49 = load <4 x float>, ptr %11, align 16, !tbaa !55
  %50 = call noundef <4 x float> @_ZN3ozz4math14TransformPointERKNS0_8Float4x4EDv4_f(ptr noundef nonnull align 16 dereferenceable(64) %48, <4 x float> noundef %49)
  store <4 x float> %50, ptr %12, align 16, !tbaa !55
  %51 = load <4 x float>, ptr %12, align 16, !tbaa !55
  %52 = load ptr, ptr %5, align 8, !tbaa !51
  call void @_ZN3ozz4math10Store3PtrUEDv4_fPf(<4 x float> noundef %51, ptr noundef %52)
  %53 = load ptr, ptr %3, align 8, !tbaa !50
  %54 = ptrtoint ptr %53 to i64
  %55 = load ptr, ptr %2, align 8, !tbaa !4
  %56 = getelementptr inbounds nuw %"struct.ozz::geometry::SkinningJob", ptr %55, i32 0, i32 5
  %57 = load i64, ptr %56, align 8, !tbaa !21
  %58 = add i64 %54, %57
  %59 = inttoptr i64 %58 to ptr
  store ptr %59, ptr %3, align 8, !tbaa !50
  %60 = load ptr, ptr %4, align 8, !tbaa !51
  %61 = ptrtoint ptr %60 to i64
  %62 = load ptr, ptr %2, align 8, !tbaa !4
  %63 = getelementptr inbounds nuw %"struct.ozz::geometry::SkinningJob", ptr %62, i32 0, i32 9
  %64 = load i64, ptr %63, align 8, !tbaa !23
  %65 = add i64 %61, %64
  %66 = inttoptr i64 %65 to ptr
  store ptr %66, ptr %4, align 8, !tbaa !51
  %67 = load ptr, ptr %5, align 8, !tbaa !51
  %68 = ptrtoint ptr %67 to i64
  %69 = load ptr, ptr %2, align 8, !tbaa !4
  %70 = getelementptr inbounds nuw %"struct.ozz::geometry::SkinningJob", ptr %69, i32 0, i32 15
  %71 = load i64, ptr %70, align 8, !tbaa !26
  %72 = add i64 %68, %71
  %73 = inttoptr i64 %72 to ptr
  store ptr %73, ptr %5, align 8, !tbaa !51
  call void @llvm.lifetime.end.p0(i64 16, ptr %12) #8
  call void @llvm.lifetime.end.p0(i64 16, ptr %11) #8
  call void @llvm.lifetime.end.p0(i64 8, ptr %10) #8
  call void @llvm.lifetime.end.p0(i64 8, ptr %9) #8
  call void @llvm.lifetime.end.p0(i64 2, ptr %8) #8
  br label %74

74:                                               ; preds = %36
  %75 = load i32, ptr %7, align 4, !tbaa !49
  %76 = add nsw i32 %75, 1
  store i32 %76, ptr %7, align 4, !tbaa !49
  br label %31, !llvm.loop !56

77:                                               ; preds = %35
  call void @llvm.lifetime.start.p0(i64 2, ptr %13) #8
  %78 = load ptr, ptr %3, align 8, !tbaa !50
  %79 = getelementptr inbounds i16, ptr %78, i64 0
  %80 = load i16, ptr %79, align 2, !tbaa !52
  store i16 %80, ptr %13, align 2, !tbaa !52
  call void @llvm.lifetime.start.p0(i64 8, ptr %14) #8
  %81 = load ptr, ptr %2, align 8, !tbaa !4
  %82 = getelementptr inbounds nuw %"struct.ozz::geometry::SkinningJob", ptr %81, i32 0, i32 2
  %83 = load i16, ptr %13, align 2, !tbaa !52
  %84 = zext i16 %83 to i64
  %85 = call noundef nonnull align 16 dereferenceable(64) ptr @_ZNK3ozz4spanIKNS_4math8Float4x4EEixEm(ptr noundef nonnull align 8 dereferenceable(16) %82, i64 noundef %84)
  store ptr %85, ptr %14, align 8, !tbaa !54
  call void @llvm.lifetime.start.p0(i64 8, ptr %15) #8
  %86 = load ptr, ptr %14, align 8, !tbaa !54
  store ptr %86, ptr %15, align 8, !tbaa !54
  call void @llvm.lifetime.start.p0(i64 16, ptr %16) #8
  %87 = load ptr, ptr %4, align 8, !tbaa !51
  %88 = call noundef <4 x float> @_ZN3ozz4math11simd_float49Load3PtrUEPKf(ptr noundef %87)
  store <4 x float> %88, ptr %16, align 16, !tbaa !55
  call void @llvm.lifetime.start.p0(i64 16, ptr %17) #8
  %89 = load ptr, ptr %14, align 8, !tbaa !54
  %90 = load <4 x float>, ptr %16, align 16, !tbaa !55
  %91 = call noundef <4 x float> @_ZN3ozz4math14TransformPointERKNS0_8Float4x4EDv4_f(ptr noundef nonnull align 16 dereferenceable(64) %89, <4 x float> noundef %90)
  store <4 x float> %91, ptr %17, align 16, !tbaa !55
  %92 = load <4 x float>, ptr %17, align 16, !tbaa !55
  %93 = load ptr, ptr %5, align 8, !tbaa !51
  call void @_ZN3ozz4math10Store3PtrUEDv4_fPf(<4 x float> noundef %92, ptr noundef %93)
  call void @llvm.lifetime.end.p0(i64 16, ptr %17) #8
  call void @llvm.lifetime.end.p0(i64 16, ptr %16) #8
  call void @llvm.lifetime.end.p0(i64 8, ptr %15) #8
  call void @llvm.lifetime.end.p0(i64 8, ptr %14) #8
  call void @llvm.lifetime.end.p0(i64 2, ptr %13) #8
  call void @llvm.lifetime.end.p0(i64 4, ptr %6) #8
  call void @llvm.lifetime.end.p0(i64 8, ptr %5) #8
  call void @llvm.lifetime.end.p0(i64 8, ptr %4) #8
  call void @llvm.lifetime.end.p0(i64 8, ptr %3) #8
  ret void
}