; Function Attrs: mustprogress nofree norecurse nosync nounwind memory(readwrite, inaccessiblemem: none) uwtable
define dso_local void @_ZN3ozz8geometry14SkinningPNOIT1ERKNS0_11SkinningJobE(ptr noundef nonnull readonly align 8 captures(none) dereferenceable(232) %0) #2 {
  %2 = getelementptr inbounds nuw i8, ptr %0, i64 40
  %3 = load ptr, ptr %2, align 8, !tbaa !31
  %4 = getelementptr inbounds nuw i8, ptr %0, i64 88
  %5 = load ptr, ptr %4, align 8, !tbaa !32
  %6 = getelementptr inbounds nuw i8, ptr %0, i64 160
  %7 = load ptr, ptr %6, align 8, !tbaa !33
  %8 = load i32, ptr %0, align 8, !tbaa !19
  %9 = icmp sgt i32 %8, 1
  br i1 %9, label %.lr.ph, label %._crit_edge

.lr.ph:                                           ; preds = %1
  %10 = getelementptr inbounds nuw i8, ptr %0, i64 8
  %11 = getelementptr inbounds nuw i8, ptr %0, i64 56
  %12 = getelementptr inbounds nuw i8, ptr %0, i64 104
  %13 = getelementptr inbounds nuw i8, ptr %0, i64 176
  %14 = add nsw i32 %8, -2
  br label %49

._crit_edge:                                      ; preds = %49, %1
  %.031.lcssa = phi ptr [ %7, %1 ], [ %87, %49 ]
  %.030.lcssa = phi ptr [ %5, %1 ], [ %83, %49 ]
  %.0.lcssa = phi ptr [ %3, %1 ], [ %79, %49 ]
  %15 = load i16, ptr %.0.lcssa, align 2, !tbaa !34
  %16 = getelementptr inbounds nuw i8, ptr %0, i64 8
  %17 = zext i16 %15 to i64
  %18 = load ptr, ptr %16, align 8, !tbaa !36
  %19 = getelementptr inbounds nuw %"struct.ozz::math::Float4x4", ptr %18, i64 %17
  %20 = load float, ptr %.030.lcssa, align 1, !tbaa !37
  %21 = insertelement <4 x float> poison, float %20, i64 0
  %22 = getelementptr inbounds nuw i8, ptr %.030.lcssa, i64 4
  %23 = load float, ptr %22, align 1, !tbaa !37
  %24 = getelementptr inbounds nuw i8, ptr %.030.lcssa, i64 8
  %25 = load float, ptr %24, align 1, !tbaa !37
  %26 = insertelement <4 x float> poison, float %25, i64 0
  %27 = shufflevector <4 x float> %21, <4 x float> poison, <4 x i32> <i32 0, i32 0, i32 0, i32 poison>
  %28 = load <4 x float>, ptr %19, align 16, !tbaa !37
  %29 = fmul <4 x float> %27, %28
  %30 = shufflevector <4 x float> %26, <4 x float> poison, <4 x i32> <i32 0, i32 0, i32 0, i32 poison>
  %31 = getelementptr inbounds nuw i8, ptr %19, i64 32
  %32 = load <4 x float>, ptr %31, align 16, !tbaa !37
  %33 = fmul <4 x float> %30, %32
  %34 = getelementptr inbounds nuw i8, ptr %19, i64 48
  %35 = load <4 x float>, ptr %34, align 16, !tbaa !37
  %36 = fadd <4 x float> %33, %35
  %37 = insertelement <4 x float> poison, float %23, i64 0
  %38 = shufflevector <4 x float> %37, <4 x float> poison, <4 x i32> <i32 0, i32 0, i32 0, i32 poison>
  %39 = getelementptr inbounds nuw i8, ptr %19, i64 16
  %40 = load <4 x float>, ptr %39, align 16, !tbaa !37
  %41 = fmul <4 x float> %38, %40
  %42 = fadd <4 x float> %29, %41
  %43 = fadd <4 x float> %36, %42
  %44 = extractelement <4 x float> %43, i64 0
  store float %44, ptr %.031.lcssa, align 1, !tbaa !37
  %45 = getelementptr inbounds nuw i8, ptr %.031.lcssa, i64 4
  %46 = extractelement <4 x float> %43, i64 1
  store float %46, ptr %45, align 1, !tbaa !37
  %47 = getelementptr inbounds nuw i8, ptr %.031.lcssa, i64 8
  %48 = extractelement <4 x float> %43, i64 2
  store float %48, ptr %47, align 1, !tbaa !37
  ret void

49:                                               ; preds = %.lr.ph, %49
  %.036 = phi ptr [ %3, %.lr.ph ], [ %79, %49 ]
  %.03035 = phi ptr [ %5, %.lr.ph ], [ %83, %49 ]
  %.03134 = phi ptr [ %7, %.lr.ph ], [ %87, %49 ]
  %.03233 = phi i32 [ 0, %.lr.ph ], [ %88, %49 ]
  %50 = load i16, ptr %.036, align 2, !tbaa !34
  %51 = zext i16 %50 to i64
  %52 = load ptr, ptr %10, align 8, !tbaa !36
  %53 = getelementptr inbounds nuw %"struct.ozz::math::Float4x4", ptr %52, i64 %51
  %54 = load <4 x float>, ptr %.03035, align 1, !tbaa !37
  %55 = shufflevector <4 x float> %54, <4 x float> poison, <4 x i32> <i32 0, i32 0, i32 0, i32 poison>
  %56 = load <4 x float>, ptr %53, align 16, !tbaa !37
  %57 = fmul <4 x float> %55, %56
  %58 = shufflevector <4 x float> %54, <4 x float> poison, <4 x i32> <i32 2, i32 2, i32 2, i32 poison>
  %59 = getelementptr inbounds nuw i8, ptr %53, i64 32
  %60 = load <4 x float>, ptr %59, align 16, !tbaa !37
  %61 = fmul <4 x float> %58, %60
  %62 = getelementptr inbounds nuw i8, ptr %53, i64 48
  %63 = load <4 x float>, ptr %62, align 16, !tbaa !37
  %64 = fadd <4 x float> %61, %63
  %65 = shufflevector <4 x float> %54, <4 x float> poison, <4 x i32> <i32 1, i32 1, i32 1, i32 poison>
  %66 = getelementptr inbounds nuw i8, ptr %53, i64 16
  %67 = load <4 x float>, ptr %66, align 16, !tbaa !37
  %68 = fmul <4 x float> %65, %67
  %69 = fadd <4 x float> %57, %68
  %70 = fadd <4 x float> %64, %69
  %71 = extractelement <4 x float> %70, i64 0
  store float %71, ptr %.03134, align 1, !tbaa !37
  %72 = getelementptr inbounds nuw i8, ptr %.03134, i64 4
  %73 = extractelement <4 x float> %70, i64 1
  store float %73, ptr %72, align 1, !tbaa !37
  %74 = getelementptr inbounds nuw i8, ptr %.03134, i64 8
  %75 = extractelement <4 x float> %70, i64 2
  store float %75, ptr %74, align 1, !tbaa !37
  %76 = ptrtoint ptr %.036 to i64
  %77 = load i64, ptr %11, align 8, !tbaa !21
  %78 = add i64 %77, %76
  %79 = inttoptr i64 %78 to ptr
  %80 = ptrtoint ptr %.03035 to i64
  %81 = load i64, ptr %12, align 8, !tbaa !24
  %82 = add i64 %81, %80
  %83 = inttoptr i64 %82 to ptr
  %84 = ptrtoint ptr %.03134 to i64
  %85 = load i64, ptr %13, align 8, !tbaa !26
  %86 = add i64 %85, %84
  %87 = inttoptr i64 %86 to ptr
  %88 = add nuw nsw i32 %.03233, 1
  %exitcond.not = icmp eq i32 %.03233, %14
  br i1 %exitcond.not, label %._crit_edge, label %49, !llvm.loop !38
}